Certificate:
    Data:
        Version: 3 (0x2)
        Serial Number: 23788 (0x5cec)
        Signature Algorithm: md5WithRSAEncryption
        Issuer: C=RU, O=Yandex, OU=Passport, CN=Passport Issuing CA
        Validity
            Not Before: Sep  7 20:05:23 2013 GMT
            Not After : Dec  6 20:05:23 2013 GMT
        Subject: C=RU, ST=Moscow, OU=soap_direct_yandex, CN=37624@passport.yandex.ru/emailAddress=xsite@yandex.ru
        Subject Public Key Info:
            Public Key Algorithm: rsaEncryption
            RSA Public Key: (1024 bit)
                Modulus (1024 bit):
                    00:f8:0f:ff:50:e5:db:1e:1b:74:e0:99:5d:81:25:
                    43:bb:32:3d:df:c6:6d:dc:32:4c:64:84:08:e0:c0:
                    4d:ff:8c:2b:6c:cd:00:ad:69:1d:98:60:31:8b:fd:
                    6f:5d:02:66:2e:1f:d0:16:f1:0f:4d:15:61:76:f4:
                    12:fc:f8:ba:02:1a:bb:1b:ec:d3:6c:70:d6:63:dc:
                    e1:11:ec:c6:b9:13:dd:a2:db:3a:7f:cd:6e:70:f5:
                    22:16:c3:6d:2a:2f:02:33:b8:2f:51:32:36:bb:80:
                    66:aa:34:88:f1:1a:cc:20:7b:74:08:b0:51:12:9b:
                    a5:a6:fa:19:d9:af:7a:ff:bf
                Exponent: 65537 (0x10001)
        X509v3 extensions:
            X509v3 Basic Constraints: 
                CA:FALSE
            Netscape Comment: 
                OpenSSL Generated Certificate
            X509v3 Subject Key Identifier: 
                D6:94:0B:C5:2D:EB:CB:65:26:FD:58:AE:B8:F0:88:C1:A8:EB:FF:5E
            X509v3 Authority Key Identifier: 
                DirName:/C=RU/O=Yandex/OU=Passport/CN=Passport root CA
                serial:02

    Signature Algorithm: md5WithRSAEncryption
        78:5f:ef:f9:de:44:31:1e:39:a2:e6:9f:3a:7b:7f:fc:56:60:
        46:a9:ce:14:34:e2:85:20:45:e8:00:55:54:8e:d9:e6:09:cf:
        2d:8c:b4:89:f1:0d:08:1d:09:4a:5d:04:40:3d:7d:67:b7:82:
        b6:56:9c:ac:41:35:a9:1b:e4:b8:6d:84:2b:e2:70:c8:f9:3e:
        e7:d3:dd:e3:65:56:9e:9a:83:22:25:9e:1d:51:da:a2:bb:5e:
        30:ee:b5:ce:8c:52:4b:3b:f3:1f:5d:6d:ee:af:3c:00:d2:c7:
        eb:ee:78:30:3c:80:97:43:38:72:00:6f:92:cf:83:a4:a5:ab:
        31:e0:59:44:cf:3e:38:11:52:a8:98:a0:ae:5d:b1:7a:25:34:
        e4:a4:17:aa:c5:54:54:19:1c:f7:dc:34:98:2d:85:c5:d0:68:
        4d:11:14:49:2b:0e:bb:2c:15:ed:13:e7:9a:13:6a:89:81:2f:
        8b:66:25:5a:e1:90:c8:54:5b:e1:36:82:d7:44:1e:3a:a7:6f:
        99:28:3c:91:ca:39:2e:d5:cf:c6:20:f7:6f:39:ca:63:a4:9d:
        6d:68:2f:4a:21:14:6e:1d:c0:d9:15:cc:23:47:43:4f:8b:1f:
        ab:fd:c4:af:1e:88:bb:4e:20:6d:41:73:05:a6:36:f0:c6:13:
        c9:9f:4c:72
-----BEGIN CERTIFICATE-----
MIIDgTCCAmmgAwIBAgICXOwwDQYJKoZIhvcNAQEEBQAwTzELMAkGA1UEBhMCUlUx
DzANBgNVBAoTBllhbmRleDERMA8GA1UECxMIUGFzc3BvcnQxHDAaBgNVBAMTE1Bh
c3Nwb3J0IElzc3VpbmcgQ0EwHhcNMTMwOTA3MjAwNTIzWhcNMTMxMjA2MjAwNTIz
WjB+MQswCQYDVQQGEwJSVTEPMA0GA1UECBMGTW9zY293MRswGQYDVQQLFBJzb2Fw
X2RpcmVjdF95YW5kZXgxITAfBgNVBAMUGDM3NjI0QHBhc3Nwb3J0LnlhbmRleC5y
dTEeMBwGCSqGSIb3DQEJARYPeHNpdGVAeWFuZGV4LnJ1MIGfMA0GCSqGSIb3DQEB
AQUAA4GNADCBiQKBgQD4D/9Q5dseG3TgmV2BJUO7Mj3fxm3cMkxkhAjgwE3/jCts
zQCtaR2YYDGL/W9dAmYuH9AW8Q9NFWF29BL8+LoCGrsb7NNscNZj3OER7Ma5E92i
2zp/zW5w9SIWw20qLwIzuC9RMja7gGaqNIjxGswge3QIsFESm6Wm+hnZr3r/vwID
AQABo4G7MIG4MAkGA1UdEwQCMAAwLAYJYIZIAYb4QgENBB8WHU9wZW5TU0wgR2Vu
ZXJhdGVkIENlcnRpZmljYXRlMB0GA1UdDgQWBBTWlAvFLevLZSb9WK648IjBqOv/
XjBeBgNVHSMEVzBVoVCkTjBMMQswCQYDVQQGEwJSVTEPMA0GA1UEChMGWWFuZGV4
MREwDwYDVQQLEwhQYXNzcG9ydDEZMBcGA1UEAxMQUGFzc3BvcnQgcm9vdCBDQYIB
AjANBgkqhkiG9w0BAQQFAAOCAQEAeF/v+d5EMR45ouafOnt//FZgRqnOFDTihSBF
6ABVVI7Z5gnPLYy0ifENCB0JSl0EQD19Z7eCtlacrEE1qRvkuG2EK+JwyPk+59Pd
42VWnpqDIiWeHVHaorteMO61zoxSSzvzH11t7q88ANLH6+54MDyAl0M4cgBvks+D
pKWrMeBZRM8+OBFSqJigrl2xeiU05KQXqsVUVBkc99w0mC2FxdBoTREUSSsOuywV
7RPnmhNqiYEvi2YlWuGQyFRb4TaC10QeOqdvmSg8kco5LtXPxiD3bznKY6SdbWgv
SiEUbh3A2RXMI0dDT4sfq/3Erx6Iu04gbUFzBaY28MYTyZ9Mcg==
-----END CERTIFICATE-----
-----BEGIN RSA PRIVATE KEY-----
MIICXAIBAAKBgQD4D/9Q5dseG3TgmV2BJUO7Mj3fxm3cMkxkhAjgwE3/jCtszQCt
aR2YYDGL/W9dAmYuH9AW8Q9NFWF29BL8+LoCGrsb7NNscNZj3OER7Ma5E92i2zp/
zW5w9SIWw20qLwIzuC9RMja7gGaqNIjxGswge3QIsFESm6Wm+hnZr3r/vwIDAQAB
AoGAQsmj1zcbyL5huHryVuwekU8Uo6Q8PfX45XM7JLACEBTAOFn1nbrYcgcsL+G7
UxJrSm3cS+D5WqqwBCPw3NVm1tSDATDdYZ30/Y34If5gAdQeysW0plaaxBPHF1oo
lqd3fRb2fXYy4tMYKk21CXBvi23nhnPH4D4/krKZ5i5w/ekCQQD8RUoDikkvVgd9
02zg6JoBEz0OMdaWwn3u4vsGMK7e0GviX+RtUwFZUppkXRU6RPHIizJqPOcYAmY7
vHiLIZgTAkEA+7rIUrlhxHlcQX1jfX9DRRi613lGNG+Vq3NlBG38p4wWSjPRCndz
cG7KkQ4V6wv+cAMbQa2RBwN5Ht2fO5qHJQJBAPSFpOwxiiab2L8ZxBts2nnYUAIG
RN30v2RiFrc1UQsgMrJGCH//SPtvmb9WilDkqwecBM39InKfQMD+OkmB0okCQGoT
5tC9YA6sWY0baq56z30xk6KzbzsvfnG2ee4o7xwns0jnlwKDHblWZrRDrEbVUg4f
sP+3RXMgKo0wNSan0qUCQGkguDGrcCvVEu4g3H3Ec0n/SJF/NX4xhe9CVEmEt9ud
JAk/K/i/0vP0XMPpQf1k6+Gfn1L4cVo7hxZ9n45snBI=
-----END RSA PRIVATE KEY-----
